target datalayout = "e-m:e-p270:32:32-p271:32:32-p272:64:64-i64:64-i128:128-f80:128-n8:16:32:64-S128"
target triple = "x86_64-pc-linux-gnu"

%struct.UCharIterator = type { ptr, i32, i32, i32, i32, i32, ptr, ptr, ptr, ptr, ptr, ptr, ptr, ptr, ptr, ptr }

@.str = private unnamed_addr constant [17 x i8] c" 000000000000\1000\00", align 1
@.str.1 = private unnamed_addr constant [17 x i8] c"\00\00\00\00\00\00\00\00\1E\0F\0F\0F\00\00\00\00\00", align 1

; Function Attrs: mustprogress nounwind uwtable
define internal noundef i32 @_ZL19utf8IteratorCurrentP13UCharIterator(ptr noundef %0) #3 {
  %2 = alloca i32, align 4
  %3 = alloca ptr, align 8
  %4 = alloca ptr, align 8
  %5 = alloca i32, align 4
  %6 = alloca i32, align 4
  %7 = alloca i8, align 1
  %8 = alloca i32, align 4
  store ptr %0, ptr %3, align 8, !tbaa !3
  %9 = load ptr, ptr %3, align 8, !tbaa !3
  %10 = getelementptr inbounds nuw %struct.UCharIterator, ptr %9, i32 0, i32 5
  %11 = load i32, ptr %10, align 8, !tbaa !51
  %12 = icmp ne i32 %11, 0
  br i1 %12, label %13, label %21

13:                                               ; preds = %1
  %14 = load ptr, ptr %3, align 8, !tbaa !3
  %15 = getelementptr inbounds nuw %struct.UCharIterator, ptr %14, i32 0, i32 5
  %16 = load i32, ptr %15, align 8, !tbaa !51
  %17 = and i32 %16, 1023
  %18 = or i32 %17, 56320
  %19 = trunc i32 %18 to i16
  %20 = zext i16 %19 to i32
  store i32 %20, ptr %2, align 4
  br label %180

21:                                               ; preds = %1
  %22 = load ptr, ptr %3, align 8, !tbaa !3
  %23 = getelementptr inbounds nuw %struct.UCharIterator, ptr %22, i32 0, i32 2
  %24 = load i32, ptr %23, align 4, !tbaa !39
  %25 = load ptr, ptr %3, align 8, !tbaa !3
  %26 = getelementptr inbounds nuw %struct.UCharIterator, ptr %25, i32 0, i32 4
  %27 = load i32, ptr %26, align 4, !tbaa !17
  %28 = icmp slt i32 %24, %27
  br i1 %28, label %29, label %179

29:                                               ; preds = %21
  call void @llvm.lifetime.start.p0(i64 8, ptr %4) #8
  %30 = load ptr, ptr %3, align 8, !tbaa !3
  %31 = getelementptr inbounds nuw %struct.UCharIterator, ptr %30, i32 0, i32 0
  %32 = load ptr, ptr %31, align 8, !tbaa !14
  store ptr %32, ptr %4, align 8, !tbaa !18
  call void @llvm.lifetime.start.p0(i64 4, ptr %5) #8
  call void @llvm.lifetime.start.p0(i64 4, ptr %6) #8
  %33 = load ptr, ptr %3, align 8, !tbaa !3
  %34 = getelementptr inbounds nuw %struct.UCharIterator, ptr %33, i32 0, i32 2
  %35 = load i32, ptr %34, align 4, !tbaa !39
  store i32 %35, ptr %6, align 4, !tbaa !10
  br label %36

36:                                               ; preds = %29
  %37 = load ptr, ptr %4, align 8, !tbaa !18
  %38 = load i32, ptr %6, align 4, !tbaa !10
  %39 = add nsw i32 %38, 1
  store i32 %39, ptr %6, align 4, !tbaa !10
  %40 = sext i32 %38 to i64
  %41 = getelementptr inbounds i8, ptr %37, i64 %40
  %42 = load i8, ptr %41, align 1, !tbaa !20
  %43 = zext i8 %42 to i32
  store i32 %43, ptr %5, align 4, !tbaa !10
  %44 = load i32, ptr %5, align 4, !tbaa !10
  %45 = and i32 %44, 128
  %46 = icmp eq i32 %45, 0
  br i1 %46, label %165, label %47

47:                                               ; preds = %36
  call void @llvm.lifetime.start.p0(i64 1, ptr %7) #8
  store i8 0, ptr %7, align 1, !tbaa !20
  %48 = load i32, ptr %6, align 4, !tbaa !10
  %49 = load ptr, ptr %3, align 8, !tbaa !3
  %50 = getelementptr inbounds nuw %struct.UCharIterator, ptr %49, i32 0, i32 4
  %51 = load i32, ptr %50, align 4, !tbaa !17
  %52 = icmp ne i32 %48, %51
  br i1 %52, label %53, label %163

53:                                               ; preds = %47
  %54 = load i32, ptr %5, align 4, !tbaa !10
  %55 = icmp sge i32 %54, 224
  br i1 %55, label %56, label %137

56:                                               ; preds = %53
  %57 = load i32, ptr %5, align 4, !tbaa !10
  %58 = icmp slt i32 %57, 240
  br i1 %58, label %59, label %81

59:                                               ; preds = %56
  %60 = load i32, ptr %5, align 4, !tbaa !10
  %61 = and i32 %60, 15
  store i32 %61, ptr %5, align 4, !tbaa !10
  %62 = sext i32 %61 to i64
  %63 = getelementptr inbounds [17 x i8], ptr @.str, i64 0, i64 %62
  %64 = load i8, ptr %63, align 1, !tbaa !20
  %65 = sext i8 %64 to i32
  %66 = load ptr, ptr %4, align 8, !tbaa !18
  %67 = load i32, ptr %6, align 4, !tbaa !10
  %68 = sext i32 %67 to i64
  %69 = getelementptr inbounds i8, ptr %66, i64 %68
  %70 = load i8, ptr %69, align 1, !tbaa !20
  store i8 %70, ptr %7, align 1, !tbaa !20
  %71 = zext i8 %70 to i32
  %72 = ashr i32 %71, 5
  %73 = shl i32 1, %72
  %74 = and i32 %65, %73
  %75 = icmp ne i32 %74, 0
  br i1 %75, label %76, label %163

76:                                               ; preds = %59
  %77 = load i8, ptr %7, align 1, !tbaa !20
  %78 = zext i8 %77 to i32
  %79 = and i32 %78, 63
  %80 = trunc i32 %79 to i8
  store i8 %80, ptr %7, align 1, !tbaa !20
  br i1 true, label %125, label %163

81:                                               ; preds = %56
  %82 = load i32, ptr %5, align 4, !tbaa !10
  %83 = sub nsw i32 %82, 240
  store i32 %83, ptr %5, align 4, !tbaa !10
  %84 = icmp sle i32 %83, 4
  br i1 %84, label %85, label %163

85:                                               ; preds = %81
  %86 = load ptr, ptr %4, align 8, !tbaa !18
  %87 = load i32, ptr %6, align 4, !tbaa !10
  %88 = sext i32 %87 to i64
  %89 = getelementptr inbounds i8, ptr %86, i64 %88
  %90 = load i8, ptr %89, align 1, !tbaa !20
  store i8 %90, ptr %7, align 1, !tbaa !20
  %91 = zext i8 %90 to i32
  %92 = ashr i32 %91, 4
  %93 = sext i32 %92 to i64
  %94 = getelementptr inbounds [17 x i8], ptr @.str.1, i64 0, i64 %93
  %95 = load i8, ptr %94, align 1, !tbaa !20
  %96 = sext i8 %95 to i32
  %97 = load i32, ptr %5, align 4, !tbaa !10
  %98 = shl i32 1, %97
  %99 = and i32 %96, %98
  %100 = icmp ne i32 %99, 0
  br i1 %100, label %101, label %163

101:                                              ; preds = %85
  %102 = load i32, ptr %5, align 4, !tbaa !10
  %103 = shl i32 %102, 6
  %104 = load i8, ptr %7, align 1, !tbaa !20
  %105 = zext i8 %104 to i32
  %106 = and i32 %105, 63
  %107 = or i32 %103, %106
  store i32 %107, ptr %5, align 4, !tbaa !10
  %108 = load i32, ptr %6, align 4, !tbaa !10
  %109 = add nsw i32 %108, 1
  store i32 %109, ptr %6, align 4, !tbaa !10
  %110 = load ptr, ptr %3, align 8, !tbaa !3
  %111 = getelementptr inbounds nuw %struct.UCharIterator, ptr %110, i32 0, i32 4
  %112 = load i32, ptr %111, align 4, !tbaa !17
  %113 = icmp ne i32 %109, %112
  br i1 %113, label %114, label %163

114:                                              ; preds = %101
  %115 = load ptr, ptr %4, align 8, !tbaa !18
  %116 = load i32, ptr %6, align 4, !tbaa !10
  %117 = sext i32 %116 to i64
  %118 = getelementptr inbounds i8, ptr %115, i64 %117
  %119 = load i8, ptr %118, align 1, !tbaa !20
  %120 = zext i8 %119 to i32
  %121 = sub nsw i32 %120, 128
  %122 = trunc i32 %121 to i8
  store i8 %122, ptr %7, align 1, !tbaa !20
  %123 = zext i8 %122 to i32
  %124 = icmp sle i32 %123, 63
  br i1 %124, label %125, label %163

125:                                              ; preds = %114, %76
  %126 = load i32, ptr %5, align 4, !tbaa !10
  %127 = shl i32 %126, 6
  %128 = load i8, ptr %7, align 1, !tbaa !20
  %129 = zext i8 %128 to i32
  %130 = or i32 %127, %129
  store i32 %130, ptr %5, align 4, !tbaa !10
  %131 = load i32, ptr %6, align 4, !tbaa !10
  %132 = add nsw i32 %131, 1
  store i32 %132, ptr %6, align 4, !tbaa !10
  %133 = load ptr, ptr %3, align 8, !tbaa !3
  %134 = getelementptr inbounds nuw %struct.UCharIterator, ptr %133, i32 0, i32 4
  %135 = load i32, ptr %134, align 4, !tbaa !17
  %136 = icmp ne i32 %132, %135
  br i1 %136, label %143, label %163

137:                                              ; preds = %53
  %138 = load i32, ptr %5, align 4, !tbaa !10
  %139 = icmp sge i32 %138, 194
  br i1 %139, label %140, label %163

140:                                              ; preds = %137
  %141 = load i32, ptr %5, align 4, !tbaa !10
  %142 = and i32 %141, 31
  store i32 %142, ptr %5, align 4, !tbaa !10
  br i1 true, label %143, label %163

143:                                              ; preds = %140, %125
  %144 = load ptr, ptr %4, align 8, !tbaa !18
  %145 = load i32, ptr %6, align 4, !tbaa !10
  %146 = sext i32 %145 to i64
  %147 = getelementptr inbounds i8, ptr %144, i64 %146
  %148 = load i8, ptr %147, align 1, !tbaa !20
  %149 = zext i8 %148 to i32
  %150 = sub nsw i32 %149, 128
  %151 = trunc i32 %150 to i8
  store i8 %151, ptr %7, align 1, !tbaa !20
  %152 = zext i8 %151 to i32
  %153 = icmp sle i32 %152, 63
  br i1 %153, label %154, label %163

154:                                              ; preds = %143
  %155 = load i32, ptr %5, align 4, !tbaa !10
  %156 = shl i32 %155, 6
  %157 = load i8, ptr %7, align 1, !tbaa !20
  %158 = zext i8 %157 to i32
  %159 = or i32 %156, %158
  store i32 %159, ptr %5, align 4, !tbaa !10
  %160 = load i32, ptr %6, align 4, !tbaa !10
  %161 = add nsw i32 %160, 1
  store i32 %161, ptr %6, align 4, !tbaa !10
  br i1 true, label %162, label %163

162:                                              ; preds = %154
  br label %164

163:                                              ; preds = %154, %143, %140, %137, %125, %114, %101, %85, %81, %76, %59, %47
  store i32 65533, ptr %5, align 4, !tbaa !10
  br label %164

164:                                              ; preds = %163, %162
  call void @llvm.lifetime.end.p0(i64 1, ptr %7) #8
  br label %165

165:                                              ; preds = %164, %36
  br label %166

166:                                              ; preds = %165
  br label %167

167:                                              ; preds = %166
  %168 = load i32, ptr %5, align 4, !tbaa !10
  %169 = icmp sle i32 %168, 65535
  br i1 %169, label %170, label %172

170:                                              ; preds = %167
  %171 = load i32, ptr %5, align 4, !tbaa !10
  store i32 %171, ptr %2, align 4
  store i32 1, ptr %8, align 4
  br label %178

172:                                              ; preds = %167
  %173 = load i32, ptr %5, align 4, !tbaa !10
  %174 = ashr i32 %173, 10
  %175 = add nsw i32 %174, 55232
  %176 = trunc i32 %175 to i16
  %177 = zext i16 %176 to i32
  store i32 %177, ptr %2, align 4
  store i32 1, ptr %8, align 4
  br label %178

178:                                              ; preds = %172, %170
  call void @llvm.lifetime.end.p0(i64 4, ptr %6) #8
  call void @llvm.lifetime.end.p0(i64 4, ptr %5) #8
  call void @llvm.lifetime.end.p0(i64 8, ptr %4) #8
  br label %180

179:                                              ; preds = %21
  store i32 -1, ptr %2, align 4
  br label %180

180:                                              ; preds = %179, %178, %13
  %181 = load i32, ptr %2, align 4
  ret i32 %181
}