; Function Attrs: mustprogress nofree norecurse nosync nounwind willreturn memory(read, inaccessiblemem: none) uwtable
define internal noundef range(i32 -1, 65536) i32 @_ZL19utf8IteratorCurrentP13UCharIterator(ptr noundef readonly captures(none) %0) #8 {
  %2 = getelementptr inbounds nuw i8, ptr %0, i64 24
  %3 = load i32, ptr %2, align 8, !tbaa !39
  %.not = icmp eq i32 %3, 0
  br i1 %.not, label %7, label %4

4:                                                ; preds = %1
  %5 = and i32 %3, 1023
  %6 = or disjoint i32 %5, 56320
  br label %.thread

7:                                                ; preds = %1
  %8 = getelementptr inbounds nuw i8, ptr %0, i64 12
  %9 = load i32, ptr %8, align 4, !tbaa !27
  %10 = getelementptr inbounds nuw i8, ptr %0, i64 20
  %11 = load i32, ptr %10, align 4, !tbaa !13
  %12 = icmp slt i32 %9, %11
  br i1 %12, label %13, label %.thread

13:                                               ; preds = %7
  %14 = load ptr, ptr %0, align 8, !tbaa !10
  %15 = add nsw i32 %9, 1
  %16 = sext i32 %9 to i64
  %17 = getelementptr inbounds i8, ptr %14, i64 %16
  %18 = load i8, ptr %17, align 1, !tbaa !14
  %19 = zext i8 %18 to i32
  %20 = icmp sgt i8 %18, -1
  br i1 %20, label %.thread, label %21

21:                                               ; preds = %13
  %.not56 = icmp eq i32 %15, %11
  br i1 %.not56, label %.thread, label %22

22:                                               ; preds = %21
  %23 = icmp samesign ugt i8 %18, -33
  br i1 %23, label %24, label %72

24:                                               ; preds = %22
  %25 = icmp samesign ult i8 %18, -16
  br i1 %25, label %26, label %41

26:                                               ; preds = %24
  %27 = and i32 %19, 15
  %28 = zext nneg i32 %27 to i64
  %29 = getelementptr inbounds nuw [17 x i8], ptr @.str, i64 0, i64 %28
  %30 = load i8, ptr %29, align 1, !tbaa !14
  %31 = zext i8 %30 to i32
  %32 = sext i32 %15 to i64
  %33 = getelementptr inbounds i8, ptr %14, i64 %32
  %34 = load i8, ptr %33, align 1, !tbaa !14
  %35 = lshr i8 %34, 5
  %36 = zext nneg i8 %35 to i32
  %37 = shl nuw nsw i32 1, %36
  %38 = and i32 %37, %31
  %.not59 = icmp eq i32 %38, 0
  br i1 %.not59, label %.thread, label %39

39:                                               ; preds = %26
  %40 = and i8 %34, 63
  br label %67

41:                                               ; preds = %24
  %42 = add nsw i32 %19, -240
  %43 = icmp samesign ult i8 %18, -11
  br i1 %43, label %44, label %.thread

44:                                               ; preds = %41
  %45 = sext i32 %15 to i64
  %46 = getelementptr inbounds i8, ptr %14, i64 %45
  %47 = load i8, ptr %46, align 1, !tbaa !14
  %48 = zext i8 %47 to i32
  %49 = lshr i32 %48, 4
  %50 = zext nneg i32 %49 to i64
  %51 = getelementptr inbounds nuw [17 x i8], ptr @.str.1, i64 0, i64 %50
  %52 = load i8, ptr %51, align 1, !tbaa !14
  %53 = sext i8 %52 to i32
  %54 = shl nuw nsw i32 1, %42
  %55 = and i32 %54, %53
  %.not57 = icmp eq i32 %55, 0
  br i1 %.not57, label %.thread, label %56

56:                                               ; preds = %44
  %57 = add nsw i32 %9, 2
  %.not58 = icmp eq i32 %57, %11
  br i1 %.not58, label %.thread, label %58

58:                                               ; preds = %56
  %59 = shl nuw nsw i32 %42, 6
  %60 = and i32 %48, 63
  %61 = or disjoint i32 %60, %59
  %62 = sext i32 %57 to i64
  %63 = getelementptr inbounds i8, ptr %14, i64 %62
  %64 = load i8, ptr %63, align 1, !tbaa !14
  %65 = xor i8 %64, -128
  %66 = icmp ult i8 %65, 64
  br i1 %66, label %67, label %.thread

67:                                               ; preds = %39, %58
  %.042 = phi i32 [ %27, %39 ], [ %61, %58 ]
  %.041 = phi i32 [ %15, %39 ], [ %57, %58 ]
  %.0 = phi i8 [ %40, %39 ], [ %65, %58 ]
  %68 = shl nuw nsw i32 %.042, 6
  %69 = zext nneg i8 %.0 to i32
  %70 = or disjoint i32 %68, %69
  %71 = add nsw i32 %.041, 1
  %.not60 = icmp eq i32 %71, %11
  br i1 %.not60, label %.thread, label %76

72:                                               ; preds = %22
  %73 = icmp samesign ugt i8 %18, -63
  br i1 %73, label %74, label %.thread

74:                                               ; preds = %72
  %75 = and i32 %19, 31
  br label %76

76:                                               ; preds = %74, %67
  %.143 = phi i32 [ %70, %67 ], [ %75, %74 ]
  %.1 = phi i32 [ %71, %67 ], [ %15, %74 ]
  %77 = sext i32 %.1 to i64
  %78 = getelementptr inbounds i8, ptr %14, i64 %77
  %79 = load i8, ptr %78, align 1, !tbaa !14
  %80 = xor i8 %79, -128
  %81 = icmp ult i8 %80, 64
  br i1 %81, label %82, label %.thread

82:                                               ; preds = %76
  %.143.fr = freeze i32 %.143
  %83 = zext nneg i8 %80 to i32
  %84 = shl nuw nsw i32 %.143.fr, 6
  %85 = or disjoint i32 %84, %83
  %86 = icmp ult i32 %.143.fr, 1024
  %87 = lshr i32 %.143.fr, 4
  %88 = add nuw nsw i32 %87, 55232
  %89 = and i32 %88, 65535
  %spec.select = select i1 %86, i32 %85, i32 %89
  br label %.thread

.thread:                                          ; preds = %82, %21, %26, %41, %44, %56, %58, %67, %72, %76, %13, %7, %4
  %.044 = phi i32 [ %6, %4 ], [ -1, %7 ], [ 65533, %21 ], [ 65533, %26 ], [ 65533, %41 ], [ 65533, %44 ], [ 65533, %56 ], [ 65533, %58 ], [ 65533, %67 ], [ 65533, %72 ], [ 65533, %76 ], [ %19, %13 ], [ %spec.select, %82 ]
  ret i32 %.044
}